; Function Attrs: nounwind uwtable
define internal i32 @test_cmp_create_kur() #0 {
  %1 = tail call fastcc ptr @set_up(ptr noundef nonnull @.str.32)
  %2 = icmp eq ptr %1, null
  br i1 %2, label %29, label %3

3:                                                ; preds = %0
  %4 = getelementptr inbounds nuw i8, ptr %1, i64 16
  store i32 7, ptr %4, align 8, !tbaa !17
  %5 = getelementptr inbounds nuw i8, ptr %1, i64 20
  store i32 -1, ptr %5, align 4, !tbaa !23
  %6 = getelementptr inbounds nuw i8, ptr %1, i64 40
  store i32 1, ptr %6, align 8, !tbaa !24
  %7 = getelementptr inbounds nuw i8, ptr %1, i64 8
  %8 = load ptr, ptr %7, align 8, !tbaa !25
  %9 = load ptr, ptr @newkey, align 8, !tbaa !4
  %10 = tail call i32 @EVP_PKEY_up_ref(ptr noundef %9) #4
  %.not.i = icmp eq i32 %10, 0
  br i1 %.not.i, label %set1_newPkey.exit, label %11

11:                                               ; preds = %3
  %12 = tail call i32 @OSSL_CMP_CTX_set0_newPkey(ptr noundef %8, i32 noundef 1, ptr noundef %9) #4
  %.not4.i = icmp eq i32 %12, 0
  br i1 %.not4.i, label %13, label %set1_newPkey.exit

13:                                               ; preds = %11
  tail call void @EVP_PKEY_free(ptr noundef %9) #4
  br label %set1_newPkey.exit

set1_newPkey.exit:                                ; preds = %3, %11, %13
  %.0.i = phi i32 [ 0, %13 ], [ 0, %3 ], [ 1, %11 ]
  %14 = tail call i32 @test_true(ptr noundef nonnull @.str.14, i32 noundef 261, ptr noundef nonnull @.str.45, i32 noundef %.0.i) #4
  %.not = icmp eq i32 %14, 0
  br i1 %.not, label %.sink.split, label %15

15:                                               ; preds = %set1_newPkey.exit
  %16 = load ptr, ptr %7, align 8, !tbaa !25
  %17 = load ptr, ptr @cert, align 8, !tbaa !9
  %18 = tail call i32 @OSSL_CMP_CTX_set1_oldCert(ptr noundef %16, ptr noundef %17) #4
  %19 = icmp ne i32 %18, 0
  %20 = zext i1 %19 to i32
  %21 = tail call i32 @test_true(ptr noundef nonnull @.str.14, i32 noundef 262, ptr noundef nonnull @.str.63, i32 noundef %20) #4
  %.not14 = icmp eq i32 %21, 0
  br i1 %.not14, label %.sink.split, label %22

22:                                               ; preds = %15
  %23 = tail call fastcc i32 @execute_certreq_create_test(ptr noundef %1)
  br label %.sink.split

.sink.split:                                      ; preds = %15, %set1_newPkey.exit, %22
  %.012.ph = phi i32 [ %23, %22 ], [ 0, %set1_newPkey.exit ], [ 0, %15 ]
  %24 = load ptr, ptr %7, align 8, !tbaa !25
  tail call void @OSSL_CMP_CTX_free(ptr noundef %24) #4
  %25 = getelementptr inbounds nuw i8, ptr %1, i64 32
  %26 = load ptr, ptr %25, align 8, !tbaa !26
  tail call void @OSSL_CMP_MSG_free(ptr noundef %26) #4
  %27 = getelementptr inbounds nuw i8, ptr %1, i64 48
  %28 = load ptr, ptr %27, align 8, !tbaa !27
  tail call void @OSSL_CMP_PKISI_free(ptr noundef %28) #4
  tail call void @CRYPTO_free(ptr noundef nonnull %1, ptr noundef nonnull @.str.14, i32 noundef 43) #4
  br label %29

29:                                               ; preds = %.sink.split, %0
  %.012 = phi i32 [ 0, %0 ], [ %.012.ph, %.sink.split ]
  ret i32 %.012
}